target datalayout = "e-m:e-p270:32:32-p271:32:32-p272:64:64-i64:64-i128:128-f80:128-n8:16:32:64-S128"
target triple = "x86_64-pc-linux-gnu"

%struct.LockMethodData = type { i32, ptr, ptr, ptr }

@LockMethods = internal constant [3 x ptr] [ptr null, ptr @default_lockmethod, ptr @user_lockmethod], align 16

; Function Attrs: nounwind uwtable
define dso_local ptr @GetLockmodeName(i16 noundef zeroext %0, i32 noundef %1) #0 {
  %3 = alloca i16, align 2
  %4 = alloca i32, align 4
  store i16 %0, ptr %3, align 2
  store i32 %1, ptr %4, align 4
  %5 = load i16, ptr %3, align 2
  %6 = zext i16 %5 to i64
  %7 = getelementptr inbounds nuw [3 x ptr], ptr @LockMethods, i64 0, i64 %6
  %8 = load ptr, ptr %7, align 8
  %9 = getelementptr inbounds nuw %struct.LockMethodData, ptr %8, i32 0, i32 2
  %10 = load ptr, ptr %9, align 8
  %11 = load i32, ptr %4, align 4
  %12 = sext i32 %11 to i64
  %13 = getelementptr inbounds ptr, ptr %10, i64 %12
  %14 = load ptr, ptr %13, align 8
  ret ptr %14
}