; Function Attrs: mustprogress nofree norecurse nosync nounwind willreturn memory(read, inaccessiblemem: none) uwtable
define dso_local ptr @GetLockmodeName(i16 noundef zeroext %0, i32 noundef %1) local_unnamed_addr #13 {
  %3 = zext i16 %0 to i64
  %4 = getelementptr inbounds nuw [3 x ptr], ptr @LockMethods, i64 0, i64 %3
  %5 = load ptr, ptr %4, align 8
  %6 = getelementptr inbounds nuw i8, ptr %5, i64 16
  %7 = load ptr, ptr %6, align 8
  %8 = sext i32 %1 to i64
  %9 = getelementptr inbounds ptr, ptr %7, i64 %8
  %10 = load ptr, ptr %9, align 8
  ret ptr %10
}